target datalayout = "e-m:e-p270:32:32-p271:32:32-p272:64:64-i64:64-i128:128-f80:128-n8:16:32:64-S128"
target triple = "x86_64-pc-linux-gnu"

%struct.X509_VERIFY_PARAM_ID_st = type { ptr, i32, ptr, ptr, i64, ptr, i64 }

; Function Attrs: nounwind uwtable
define internal i32 @int_x509_param_set_hosts(ptr noundef %0, i32 noundef %1, ptr noundef %2, i64 noundef %3) #0 {
  %5 = alloca i32, align 4
  %6 = alloca ptr, align 8
  %7 = alloca i32, align 4
  %8 = alloca ptr, align 8
  %9 = alloca i64, align 8
  %10 = alloca ptr, align 8
  %11 = alloca i32, align 4
  store ptr %0, ptr %6, align 8, !tbaa !11
  store i32 %1, ptr %7, align 4, !tbaa !35
  store ptr %2, ptr %8, align 8, !tbaa !43
  store i64 %3, ptr %9, align 8, !tbaa !34
  call void @llvm.lifetime.start.p0(i64 8, ptr %10) #7
  %12 = load ptr, ptr %8, align 8, !tbaa !43
  %13 = icmp ne ptr %12, null
  br i1 %13, label %14, label %20

14:                                               ; preds = %4
  %15 = load ptr, ptr %8, align 8, !tbaa !43
  %16 = load i64, ptr %9, align 8, !tbaa !34
  %17 = call ptr @memchr(ptr noundef %15, i32 noundef 0, i64 noundef %16) #9
  %18 = icmp ne ptr %17, null
  br i1 %18, label %19, label %20

19:                                               ; preds = %14
  store i32 0, ptr %5, align 4
  store i32 1, ptr %11, align 4
  br label %82

20:                                               ; preds = %14, %4
  %21 = load i32, ptr %7, align 4, !tbaa !35
  %22 = icmp eq i32 %21, 0
  br i1 %22, label %23, label %34

23:                                               ; preds = %20
  %24 = load ptr, ptr %6, align 8, !tbaa !11
  %25 = getelementptr inbounds nuw %struct.X509_VERIFY_PARAM_ID_st, ptr %24, i32 0, i32 0
  %26 = load ptr, ptr %25, align 8, !tbaa !26
  %27 = icmp ne ptr %26, null
  br i1 %27, label %28, label %34

28:                                               ; preds = %23
  %29 = load ptr, ptr %6, align 8, !tbaa !11
  %30 = getelementptr inbounds nuw %struct.X509_VERIFY_PARAM_ID_st, ptr %29, i32 0, i32 0
  %31 = load ptr, ptr %30, align 8, !tbaa !26
  call void @sk_pop_free(ptr noundef %31, ptr noundef @str_free)
  %32 = load ptr, ptr %6, align 8, !tbaa !11
  %33 = getelementptr inbounds nuw %struct.X509_VERIFY_PARAM_ID_st, ptr %32, i32 0, i32 0
  store ptr null, ptr %33, align 8, !tbaa !26
  br label %34

34:                                               ; preds = %28, %23, %20
  %35 = load ptr, ptr %8, align 8, !tbaa !43
  %36 = icmp eq ptr %35, null
  br i1 %36, label %40, label %37

37:                                               ; preds = %34
  %38 = load i64, ptr %9, align 8, !tbaa !34
  %39 = icmp eq i64 %38, 0
  br i1 %39, label %40, label %41

40:                                               ; preds = %37, %34
  store i32 1, ptr %5, align 4
  store i32 1, ptr %11, align 4
  br label %82

41:                                               ; preds = %37
  %42 = load ptr, ptr %8, align 8, !tbaa !43
  %43 = load i64, ptr %9, align 8, !tbaa !34
  %44 = call ptr @BUF_strndup(ptr noundef %42, i64 noundef %43)
  store ptr %44, ptr %10, align 8, !tbaa !43
  %45 = load ptr, ptr %10, align 8, !tbaa !43
  %46 = icmp eq ptr %45, null
  br i1 %46, label %47, label %48

47:                                               ; preds = %41
  store i32 0, ptr %5, align 4
  store i32 1, ptr %11, align 4
  br label %82

48:                                               ; preds = %41
  %49 = load ptr, ptr %6, align 8, !tbaa !11
  %50 = getelementptr inbounds nuw %struct.X509_VERIFY_PARAM_ID_st, ptr %49, i32 0, i32 0
  %51 = load ptr, ptr %50, align 8, !tbaa !26
  %52 = icmp eq ptr %51, null
  br i1 %52, label %53, label %60

53:                                               ; preds = %48
  %54 = call ptr @sk_new_null()
  %55 = load ptr, ptr %6, align 8, !tbaa !11
  %56 = getelementptr inbounds nuw %struct.X509_VERIFY_PARAM_ID_st, ptr %55, i32 0, i32 0
  store ptr %54, ptr %56, align 8, !tbaa !26
  %57 = icmp eq ptr %54, null
  br i1 %57, label %58, label %60

58:                                               ; preds = %53
  %59 = load ptr, ptr %10, align 8, !tbaa !43
  call void @free(ptr noundef %59) #7
  store i32 0, ptr %5, align 4
  store i32 1, ptr %11, align 4
  br label %82

60:                                               ; preds = %53, %48
  %61 = load ptr, ptr %6, align 8, !tbaa !11
  %62 = getelementptr inbounds nuw %struct.X509_VERIFY_PARAM_ID_st, ptr %61, i32 0, i32 0
  %63 = load ptr, ptr %62, align 8, !tbaa !26
  %64 = load ptr, ptr %10, align 8, !tbaa !43
  %65 = call i64 @sk_push(ptr noundef %63, ptr noundef %64)
  %66 = icmp ne i64 %65, 0
  br i1 %66, label %81, label %67

67:                                               ; preds = %60
  %68 = load ptr, ptr %10, align 8, !tbaa !43
  call void @free(ptr noundef %68) #7
  %69 = load ptr, ptr %6, align 8, !tbaa !11
  %70 = getelementptr inbounds nuw %struct.X509_VERIFY_PARAM_ID_st, ptr %69, i32 0, i32 0
  %71 = load ptr, ptr %70, align 8, !tbaa !26
  %72 = call i64 @sk_num(ptr noundef %71)
  %73 = icmp eq i64 %72, 0
  br i1 %73, label %74, label %80

74:                                               ; preds = %67
  %75 = load ptr, ptr %6, align 8, !tbaa !11
  %76 = getelementptr inbounds nuw %struct.X509_VERIFY_PARAM_ID_st, ptr %75, i32 0, i32 0
  %77 = load ptr, ptr %76, align 8, !tbaa !26
  call void @sk_free(ptr noundef %77)
  %78 = load ptr, ptr %6, align 8, !tbaa !11
  %79 = getelementptr inbounds nuw %struct.X509_VERIFY_PARAM_ID_st, ptr %78, i32 0, i32 0
  store ptr null, ptr %79, align 8, !tbaa !26
  br label %80

80:                                               ; preds = %74, %67
  store i32 0, ptr %5, align 4
  store i32 1, ptr %11, align 4
  br label %82

81:                                               ; preds = %60
  store i32 1, ptr %5, align 4
  store i32 1, ptr %11, align 4
  br label %82

82:                                               ; preds = %81, %80, %58, %47, %40, %19
  call void @llvm.lifetime.end.p0(i64 8, ptr %10) #7
  %83 = load i32, ptr %5, align 4
  ret i32 %83
}