; Function Attrs: nounwind uwtable
define internal fastcc range(i32 0, 2) i32 @int_x509_param_set_hosts(ptr noundef captures(none) %0, i32 noundef range(i32 0, 2) %1, ptr noundef %2, i64 noundef %3) unnamed_addr #0 {
  %.not = icmp eq ptr %2, null
  br i1 %.not, label %7, label %5

5:                                                ; preds = %4
  %6 = tail call ptr @memchr(ptr noundef nonnull %2, i32 noundef 0, i64 noundef %3) #17
  %.not26 = icmp eq ptr %6, null
  br i1 %.not26, label %7, label %33

7:                                                ; preds = %5, %4
  %8 = icmp eq i32 %1, 0
  br i1 %8, label %9, label %12

9:                                                ; preds = %7
  %10 = load ptr, ptr %0, align 8, !tbaa !19
  %.not27 = icmp eq ptr %10, null
  br i1 %.not27, label %12, label %11

11:                                               ; preds = %9
  tail call void @sk_pop_free(ptr noundef nonnull %10, ptr noundef nonnull @str_free) #16
  store ptr null, ptr %0, align 8, !tbaa !19
  br label %12

12:                                               ; preds = %11, %9, %7
  %13 = icmp eq i64 %3, 0
  %or.cond = or i1 %.not, %13
  br i1 %or.cond, label %33, label %14

14:                                               ; preds = %12
  %15 = tail call ptr @BUF_strndup(ptr noundef nonnull %2, i64 noundef %3) #16
  %16 = icmp eq ptr %15, null
  br i1 %16, label %33, label %17

17:                                               ; preds = %14
  %18 = load ptr, ptr %0, align 8, !tbaa !19
  %19 = icmp eq ptr %18, null
  br i1 %19, label %20, label %24

20:                                               ; preds = %17
  %21 = tail call ptr @sk_new_null() #16
  store ptr %21, ptr %0, align 8, !tbaa !19
  %22 = icmp eq ptr %21, null
  br i1 %22, label %23, label %24

23:                                               ; preds = %20
  tail call void @free(ptr noundef nonnull %15) #16
  br label %33

24:                                               ; preds = %20, %17
  %25 = phi ptr [ %21, %20 ], [ %18, %17 ]
  %26 = tail call i64 @sk_push(ptr noundef nonnull %25, ptr noundef nonnull %15) #16
  %.not28 = icmp eq i64 %26, 0
  br i1 %.not28, label %27, label %33

27:                                               ; preds = %24
  tail call void @free(ptr noundef nonnull %15) #16
  %28 = load ptr, ptr %0, align 8, !tbaa !19
  %29 = tail call i64 @sk_num(ptr noundef %28) #16
  %30 = icmp eq i64 %29, 0
  br i1 %30, label %31, label %33

31:                                               ; preds = %27
  %32 = load ptr, ptr %0, align 8, !tbaa !19
  tail call void @sk_free(ptr noundef %32) #16
  store ptr null, ptr %0, align 8, !tbaa !19
  br label %33

33:                                               ; preds = %24, %27, %31, %14, %12, %5, %23
  %.0 = phi i32 [ 0, %23 ], [ 0, %5 ], [ 1, %12 ], [ 0, %14 ], [ 0, %31 ], [ 0, %27 ], [ 1, %24 ]
  ret i32 %.0
}